target datalayout = "e-m:e-p270:32:32-p271:32:32-p272:64:64-i64:64-i128:128-f80:128-n8:16:32:64-S128"
target triple = "x86_64-pc-linux-gnu"

%"class.std::__cxx11::basic_string" = type { %"struct.std::__cxx11::basic_string<char>::_Alloc_hider", i64, %union.anon }
%"struct.std::__cxx11::basic_string<char>::_Alloc_hider" = type { ptr }
%union.anon = type { i64, [8 x i8] }
%"class.std::basic_string_view" = type { i64, ptr }
%"class.cmQtAutoGenerator::Logger" = type <{ %"class.std::mutex", i32, i8, [3 x i8] }>
%"class.std::mutex" = type { %"class.std::__mutex_base" }
%"class.std::__mutex_base" = type { %union.pthread_mutex_t }
%union.pthread_mutex_t = type { %struct.__pthread_mutex_s }
%struct.__pthread_mutex_s = type { i32, i32, i32, i32, i32, i16, i16, %struct.__pthread_internal_list }
%struct.__pthread_internal_list = type { ptr, ptr }

@.str = private unnamed_addr constant [8 x i8] c"VERBOSE\00", align 1
@.str.1 = private unnamed_addr constant [6 x i8] c"COLOR\00", align 1

; Function Attrs: mustprogress nounwind uwtable
define linkonce_odr dso_local void @_ZNSt12__mutex_baseC2Ev(ptr noundef nonnull align 8 dereferenceable(40) %0) unnamed_addr #5 comdat align 2 {
  %2 = alloca ptr, align 8
  store ptr %0, ptr %2, align 8
  %3 = load ptr, ptr %2, align 8
  %4 = getelementptr inbounds %"class.std::__mutex_base", ptr %3, i32 0, i32 0
  call void @llvm.memset.p0.i64(ptr align 8 %4, i8 0, i64 40, i1 false)
  %5 = getelementptr inbounds %struct.__pthread_mutex_s, ptr %4, i32 0, i32 4
  store i32 0, ptr %5, align 8
  ret void
}

; Function Attrs: mustprogress nounwind uwtable
define dso_local void @_ZN17cmQtAutoGenerator6Logger14SetColorOutputEb(ptr noundef nonnull align 8 dereferenceable(45) %0, i1 noundef zeroext %1) #5 align 2 {
  %3 = alloca ptr, align 8
  %4 = alloca i8, align 1
  store ptr %0, ptr %3, align 8
  %5 = zext i1 %1 to i8
  store i8 %5, ptr %4, align 1
  %6 = load ptr, ptr %3, align 8
  %7 = load i8, ptr %4, align 1
  %8 = trunc i8 %7 to i1
  %9 = getelementptr inbounds %"class.cmQtAutoGenerator::Logger", ptr %6, i32 0, i32 2
  %10 = zext i1 %8 to i8
  store i8 %10, ptr %9, align 4
  ret void
}

; Function Attrs: mustprogress nounwind uwtable
define linkonce_odr dso_local void @_ZN17cmQtAutoGenerator6Logger10SetVerboseEb(ptr noundef nonnull align 8 dereferenceable(45) %0, i1 noundef zeroext %1) #5 comdat align 2 {
  %3 = alloca ptr, align 8
  %4 = alloca i8, align 1
  store ptr %0, ptr %3, align 8
  %5 = zext i1 %1 to i8
  store i8 %5, ptr %4, align 1
  %6 = load ptr, ptr %3, align 8
  %7 = load i8, ptr %4, align 1
  %8 = trunc i8 %7 to i1
  %9 = select i1 %8, i32 1, i32 0
  %10 = getelementptr inbounds %"class.cmQtAutoGenerator::Logger", ptr %6, i32 0, i32 1
  store i32 %9, ptr %10, align 8
  ret void
}

; Function Attrs: mustprogress nounwind uwtable
define linkonce_odr dso_local noundef zeroext i1 @_Z6cmIsOnSt17basic_string_viewIcSt11char_traitsIcEE(i64 %0, ptr %1) #5 comdat {
  %3 = alloca %"class.std::basic_string_view", align 8
  %4 = alloca %"class.std::basic_string_view", align 8
  %5 = getelementptr inbounds { i64, ptr }, ptr %3, i32 0, i32 0
  store i64 %0, ptr %5, align 8
  %6 = getelementptr inbounds { i64, ptr }, ptr %3, i32 0, i32 1
  store ptr %1, ptr %6, align 8
  call void @llvm.memcpy.p0.p0.i64(ptr align 8 %4, ptr align 8 %3, i64 16, i1 false)
  %7 = getelementptr inbounds { i64, ptr }, ptr %4, i32 0, i32 0
  %8 = load i64, ptr %7, align 8
  %9 = getelementptr inbounds { i64, ptr }, ptr %4, i32 0, i32 1
  %10 = load ptr, ptr %9, align 8
  %11 = call noundef zeroext i1 @_ZN7cmValue4IsOnESt17basic_string_viewIcSt11char_traitsIcEE(i64 %8, ptr %10) #3
  ret i1 %11
}

; Function Attrs: mustprogress nounwind uwtable
define linkonce_odr dso_local void @_ZN17cmQtAutoGenerator6Logger12SetVerbosityEj(ptr noundef nonnull align 8 dereferenceable(45) %0, i32 noundef %1) #5 comdat align 2 {
  %3 = alloca ptr, align 8
  %4 = alloca i32, align 4
  store ptr %0, ptr %3, align 8
  store i32 %1, ptr %4, align 4
  %5 = load ptr, ptr %3, align 8
  %6 = load i32, ptr %4, align 4
  %7 = getelementptr inbounds %"class.cmQtAutoGenerator::Logger", ptr %5, i32 0, i32 1
  store i32 %6, ptr %7, align 8
  ret void
}

; Function Attrs: mustprogress nounwind uwtable
define linkonce_odr dso_local void @_ZNSt5mutexC2Ev(ptr noundef nonnull align 8 dereferenceable(40) %0) unnamed_addr #5 comdat align 2 {
  %2 = alloca ptr, align 8
  store ptr %0, ptr %2, align 8
  %3 = load ptr, ptr %2, align 8
  call void @_ZNSt12__mutex_baseC2Ev(ptr noundef nonnull align 8 dereferenceable(40) %3) #3
  ret void
}

; Function Attrs: mustprogress uwtable
define dso_local void @_ZN17cmQtAutoGenerator6LoggerC2Ev(ptr noundef nonnull align 8 dereferenceable(45) %0) unnamed_addr #4 align 2 personality ptr @__gxx_personality_v0 {
  %2 = alloca ptr, align 8
  %3 = alloca %"class.std::__cxx11::basic_string", align 8
  %4 = alloca ptr, align 8
  %5 = alloca i32, align 4
  %6 = alloca i64, align 8
  %7 = alloca %"class.std::basic_string_view", align 8
  %8 = alloca %"class.std::__cxx11::basic_string", align 8
  %9 = alloca %"class.std::basic_string_view", align 8
  store ptr %0, ptr %2, align 8
  %10 = load ptr, ptr %2, align 8
  %11 = getelementptr inbounds %"class.cmQtAutoGenerator::Logger", ptr %10, i32 0, i32 0
  call void @_ZNSt5mutexC2Ev(ptr noundef nonnull align 8 dereferenceable(40) %11) #3
  %12 = getelementptr inbounds %"class.cmQtAutoGenerator::Logger", ptr %10, i32 0, i32 1
  store i32 0, ptr %12, align 8
  %13 = getelementptr inbounds %"class.cmQtAutoGenerator::Logger", ptr %10, i32 0, i32 2
  store i8 0, ptr %13, align 4
  call void @_ZNSt7__cxx1112basic_stringIcSt11char_traitsIcESaIcEEC1Ev(ptr noundef nonnull align 8 dereferenceable(32) %3) #3
  %14 = invoke noundef zeroext i1 @_ZN5cmsys11SystemTools6GetEnvEPKcRNSt7__cxx1112basic_stringIcSt11char_traitsIcESaIcEEE(ptr noundef @.str, ptr noundef nonnull align 8 dereferenceable(32) %3)
          to label %15 unwind label %25

15:                                               ; preds = %1
  br i1 %14, label %16, label %43

16:                                               ; preds = %15
  %17 = call noundef zeroext i1 @_ZNKSt7__cxx1112basic_stringIcSt11char_traitsIcESaIcEE5emptyEv(ptr noundef nonnull align 8 dereferenceable(32) %3) #3
  br i1 %17, label %43, label %18

18:                                               ; preds = %16
  store i64 0, ptr %6, align 8
  %19 = invoke noundef zeroext i1 @_Z12cmStrToULongRKNSt7__cxx1112basic_stringIcSt11char_traitsIcESaIcEEEPm(ptr noundef nonnull align 8 dereferenceable(32) %3, ptr noundef %6)
          to label %20 unwind label %25

20:                                               ; preds = %18
  br i1 %19, label %21, label %29

21:                                               ; preds = %20
  %22 = load i64, ptr %6, align 8
  %23 = trunc i64 %22 to i32
  invoke void @_ZN17cmQtAutoGenerator6Logger12SetVerbosityEj(ptr noundef nonnull align 8 dereferenceable(45) %10, i32 noundef %23)
          to label %24 unwind label %25

24:                                               ; preds = %21
  br label %42

25:                                               ; preds = %40, %29, %21, %18, %1
  %26 = landingpad { ptr, i32 }
          cleanup
  %27 = extractvalue { ptr, i32 } %26, 0
  store ptr %27, ptr %4, align 8
  %28 = extractvalue { ptr, i32 } %26, 1
  store i32 %28, ptr %5, align 4
  call void @_ZNSt7__cxx1112basic_stringIcSt11char_traitsIcESaIcEED1Ev(ptr noundef nonnull align 8 dereferenceable(32) %3) #3
  br label %67

29:                                               ; preds = %20
  %30 = call { i64, ptr } @_ZNKSt7__cxx1112basic_stringIcSt11char_traitsIcESaIcEEcvSt17basic_string_viewIcS2_EEv(ptr noundef nonnull align 8 dereferenceable(32) %3) #3
  %31 = getelementptr inbounds { i64, ptr }, ptr %7, i32 0, i32 0
  %32 = extractvalue { i64, ptr } %30, 0
  store i64 %32, ptr %31, align 8
  %33 = getelementptr inbounds { i64, ptr }, ptr %7, i32 0, i32 1
  %34 = extractvalue { i64, ptr } %30, 1
  store ptr %34, ptr %33, align 8
  %35 = getelementptr inbounds { i64, ptr }, ptr %7, i32 0, i32 0
  %36 = load i64, ptr %35, align 8
  %37 = getelementptr inbounds { i64, ptr }, ptr %7, i32 0, i32 1
  %38 = load ptr, ptr %37, align 8
  %39 = invoke noundef zeroext i1 @_Z6cmIsOnSt17basic_string_viewIcSt11char_traitsIcEE(i64 %36, ptr %38)
          to label %40 unwind label %25

40:                                               ; preds = %29
  invoke void @_ZN17cmQtAutoGenerator6Logger10SetVerboseEb(ptr noundef nonnull align 8 dereferenceable(45) %10, i1 noundef zeroext %39)
          to label %41 unwind label %25

41:                                               ; preds = %40
  br label %42

42:                                               ; preds = %41, %24
  br label %43

43:                                               ; preds = %42, %16, %15
  call void @_ZNSt7__cxx1112basic_stringIcSt11char_traitsIcESaIcEED1Ev(ptr noundef nonnull align 8 dereferenceable(32) %3) #3
  call void @_ZNSt7__cxx1112basic_stringIcSt11char_traitsIcESaIcEEC1Ev(ptr noundef nonnull align 8 dereferenceable(32) %8) #3
  %44 = invoke noundef zeroext i1 @_ZN5cmsys11SystemTools6GetEnvEPKcRNSt7__cxx1112basic_stringIcSt11char_traitsIcESaIcEEE(ptr noundef @.str.1, ptr noundef nonnull align 8 dereferenceable(32) %8)
          to label %45 unwind label %60

45:                                               ; preds = %43
  %46 = call noundef zeroext i1 @_ZNKSt7__cxx1112basic_stringIcSt11char_traitsIcESaIcEE5emptyEv(ptr noundef nonnull align 8 dereferenceable(32) %8) #3
  br i1 %46, label %64, label %47

47:                                               ; preds = %45
  %48 = call { i64, ptr } @_ZNKSt7__cxx1112basic_stringIcSt11char_traitsIcESaIcEEcvSt17basic_string_viewIcS2_EEv(ptr noundef nonnull align 8 dereferenceable(32) %8) #3
  %49 = getelementptr inbounds { i64, ptr }, ptr %9, i32 0, i32 0
  %50 = extractvalue { i64, ptr } %48, 0
  store i64 %50, ptr %49, align 8
  %51 = getelementptr inbounds { i64, ptr }, ptr %9, i32 0, i32 1
  %52 = extractvalue { i64, ptr } %48, 1
  store ptr %52, ptr %51, align 8
  %53 = getelementptr inbounds { i64, ptr }, ptr %9, i32 0, i32 0
  %54 = load i64, ptr %53, align 8
  %55 = getelementptr inbounds { i64, ptr }, ptr %9, i32 0, i32 1
  %56 = load ptr, ptr %55, align 8
  %57 = invoke noundef zeroext i1 @_Z6cmIsOnSt17basic_string_viewIcSt11char_traitsIcEE(i64 %54, ptr %56)
          to label %58 unwind label %60

58:                                               ; preds = %47
  invoke void @_ZN17cmQtAutoGenerator6Logger14SetColorOutputEb(ptr noundef nonnull align 8 dereferenceable(45) %10, i1 noundef zeroext %57)
          to label %59 unwind label %60

59:                                               ; preds = %58
  br label %66

60:                                               ; preds = %64, %58, %47, %43
  %61 = landingpad { ptr, i32 }
          cleanup
  %62 = extractvalue { ptr, i32 } %61, 0
  store ptr %62, ptr %4, align 8
  %63 = extractvalue { ptr, i32 } %61, 1
  store i32 %63, ptr %5, align 4
  call void @_ZNSt7__cxx1112basic_stringIcSt11char_traitsIcESaIcEED1Ev(ptr noundef nonnull align 8 dereferenceable(32) %8) #3
  br label %67

64:                                               ; preds = %45
  invoke void @_ZN17cmQtAutoGenerator6Logger14SetColorOutputEb(ptr noundef nonnull align 8 dereferenceable(45) %10, i1 noundef zeroext true)
          to label %65 unwind label %60

65:                                               ; preds = %64
  br label %66

66:                                               ; preds = %65, %59
  call void @_ZNSt7__cxx1112basic_stringIcSt11char_traitsIcESaIcEED1Ev(ptr noundef nonnull align 8 dereferenceable(32) %8) #3
  ret void

67:                                               ; preds = %60, %25
  %68 = load ptr, ptr %4, align 8
  %69 = load i32, ptr %5, align 4
  %70 = insertvalue { ptr, i32 } poison, ptr %68, 0
  %71 = insertvalue { ptr, i32 } %70, i32 %69, 1
  resume { ptr, i32 } %71
}