; Function Attrs: mustprogress uwtable
define dso_local void @_ZN17cmQtAutoGenerator6LoggerC2Ev(ptr nocapture noundef nonnull writeonly align 8 dereferenceable(45) %0) unnamed_addr #3 align 2 personality ptr @__gxx_personality_v0 {
  %2 = alloca %"class.std::__cxx11::basic_string", align 8
  %3 = alloca i64, align 8
  %4 = alloca %"class.std::__cxx11::basic_string", align 8
  %5 = getelementptr inbounds i8, ptr %0, i64 40
  tail call void @llvm.memset.p0.i64(ptr noundef nonnull align 8 dereferenceable(45) %0, i8 0, i64 45, i1 false)
  call void @_ZNSt7__cxx1112basic_stringIcSt11char_traitsIcESaIcEEC1Ev(ptr noundef nonnull align 8 dereferenceable(32) %2) #21
  %6 = invoke noundef zeroext i1 @_ZN5cmsys11SystemTools6GetEnvEPKcRNSt7__cxx1112basic_stringIcSt11char_traitsIcESaIcEEE(ptr noundef nonnull @.str, ptr noundef nonnull align 8 dereferenceable(32) %2)
          to label %7 unwind label %16

7:                                                ; preds = %1
  br i1 %6, label %8, label %24

8:                                                ; preds = %7
  %9 = call noundef zeroext i1 @_ZNKSt7__cxx1112basic_stringIcSt11char_traitsIcESaIcEE5emptyEv(ptr noundef nonnull align 8 dereferenceable(32) %2) #21
  br i1 %9, label %24, label %10

10:                                               ; preds = %8
  store i64 0, ptr %3, align 8
  %11 = invoke noundef zeroext i1 @_Z12cmStrToULongRKNSt7__cxx1112basic_stringIcSt11char_traitsIcESaIcEEEPm(ptr noundef nonnull align 8 dereferenceable(32) %2, ptr noundef nonnull %3)
          to label %12 unwind label %16

12:                                               ; preds = %10
  br i1 %11, label %13, label %18

13:                                               ; preds = %12
  %14 = load i64, ptr %3, align 8
  %15 = trunc i64 %14 to i32
  br label %.sink.split

16:                                               ; preds = %10, %1
  %17 = landingpad { ptr, i32 }
          cleanup
  br label %38

18:                                               ; preds = %12
  %19 = call { i64, ptr } @_ZNKSt7__cxx1112basic_stringIcSt11char_traitsIcESaIcEEcvSt17basic_string_viewIcS2_EEv(ptr noundef nonnull align 8 dereferenceable(32) %2) #21
  %20 = extractvalue { i64, ptr } %19, 0
  %21 = extractvalue { i64, ptr } %19, 1
  %22 = call noundef zeroext i1 @_ZN7cmValue4IsOnESt17basic_string_viewIcSt11char_traitsIcEE(i64 %20, ptr %21) #21
  %23 = zext i1 %22 to i32
  br label %.sink.split

.sink.split:                                      ; preds = %18, %13
  %.sink = phi i32 [ %15, %13 ], [ %23, %18 ]
  store i32 %.sink, ptr %5, align 8
  br label %24

24:                                               ; preds = %.sink.split, %8, %7
  call void @_ZNSt7__cxx1112basic_stringIcSt11char_traitsIcESaIcEED1Ev(ptr noundef nonnull align 8 dereferenceable(32) %2) #21
  call void @_ZNSt7__cxx1112basic_stringIcSt11char_traitsIcESaIcEEC1Ev(ptr noundef nonnull align 8 dereferenceable(32) %4) #21
  %25 = invoke noundef zeroext i1 @_ZN5cmsys11SystemTools6GetEnvEPKcRNSt7__cxx1112basic_stringIcSt11char_traitsIcESaIcEEE(ptr noundef nonnull @.str.1, ptr noundef nonnull align 8 dereferenceable(32) %4)
          to label %26 unwind label %34

26:                                               ; preds = %24
  %27 = call noundef zeroext i1 @_ZNKSt7__cxx1112basic_stringIcSt11char_traitsIcESaIcEE5emptyEv(ptr noundef nonnull align 8 dereferenceable(32) %4) #21
  br i1 %27, label %36, label %28

28:                                               ; preds = %26
  %29 = call { i64, ptr } @_ZNKSt7__cxx1112basic_stringIcSt11char_traitsIcESaIcEEcvSt17basic_string_viewIcS2_EEv(ptr noundef nonnull align 8 dereferenceable(32) %4) #21
  %30 = extractvalue { i64, ptr } %29, 0
  %31 = extractvalue { i64, ptr } %29, 1
  %32 = call noundef zeroext i1 @_ZN7cmValue4IsOnESt17basic_string_viewIcSt11char_traitsIcEE(i64 %30, ptr %31) #21
  %33 = zext i1 %32 to i8
  br label %36

34:                                               ; preds = %24
  %35 = landingpad { ptr, i32 }
          cleanup
  br label %38

36:                                               ; preds = %26, %28
  %storemerge = phi i8 [ %33, %28 ], [ 1, %26 ]
  %37 = getelementptr inbounds i8, ptr %0, i64 44
  store i8 %storemerge, ptr %37, align 4
  call void @_ZNSt7__cxx1112basic_stringIcSt11char_traitsIcESaIcEED1Ev(ptr noundef nonnull align 8 dereferenceable(32) %4) #21
  ret void

38:                                               ; preds = %34, %16
  %.sink6 = phi ptr [ %4, %34 ], [ %2, %16 ]
  %.pn = phi { ptr, i32 } [ %35, %34 ], [ %17, %16 ]
  call void @_ZNSt7__cxx1112basic_stringIcSt11char_traitsIcESaIcEED1Ev(ptr noundef nonnull align 8 dereferenceable(32) %.sink6) #21
  resume { ptr, i32 } %.pn
}